target datalayout = "e-m:e-p270:32:32-p271:32:32-p272:64:64-i64:64-i128:128-f80:128-n8:16:32:64-S128"
target triple = "x86_64-pc-linux-gnu"

%struct.dynbuf = type { ptr, i64, i64, i64 }
%struct.Curl_URL = type { ptr, ptr, ptr, ptr, ptr, ptr, ptr, ptr, ptr, ptr, i64 }

@Curl_cfree = external global ptr, align 8

; Function Attrs: nounwind uwtable
define dso_local i32 @Curl_url_set_authority(ptr noundef %0, ptr noundef %1, i32 noundef %2) #0 {
  %4 = alloca ptr, align 8
  %5 = alloca ptr, align 8
  %6 = alloca i32, align 4
  %7 = alloca i32, align 4
  %8 = alloca %struct.dynbuf, align 8
  store ptr %0, ptr %4, align 8
  store ptr %1, ptr %5, align 8
  store i32 %2, ptr %6, align 4
  br label %9

9:                                                ; preds = %3
  br label %10

10:                                               ; preds = %9
  call void @Curl_dyn_init(ptr noundef %8, i64 noundef 8000000)
  %11 = load ptr, ptr %4, align 8
  %12 = load ptr, ptr %5, align 8
  %13 = load ptr, ptr %5, align 8
  %14 = call i64 @strlen(ptr noundef %13) #7
  %15 = load i32, ptr %6, align 4
  %16 = load ptr, ptr %4, align 8
  %17 = getelementptr inbounds %struct.Curl_URL, ptr %16, i32 0, i32 0
  %18 = load ptr, ptr %17, align 8
  %19 = icmp ne ptr %18, null
  %20 = xor i1 %19, true
  %21 = xor i1 %20, true
  %22 = call i32 @parse_authority(ptr noundef %11, ptr noundef %12, i64 noundef %14, i32 noundef %15, ptr noundef %8, i1 noundef zeroext %21)
  store i32 %22, ptr %7, align 4
  %23 = load i32, ptr %7, align 4
  %24 = icmp ne i32 %23, 0
  br i1 %24, label %25, label %26

25:                                               ; preds = %10
  call void @Curl_dyn_free(ptr noundef %8)
  br label %34

26:                                               ; preds = %10
  %27 = load ptr, ptr @Curl_cfree, align 8
  %28 = load ptr, ptr %4, align 8
  %29 = getelementptr inbounds %struct.Curl_URL, ptr %28, i32 0, i32 4
  %30 = load ptr, ptr %29, align 8
  call void %27(ptr noundef %30)
  %31 = call ptr @Curl_dyn_ptr(ptr noundef %8)
  %32 = load ptr, ptr %4, align 8
  %33 = getelementptr inbounds %struct.Curl_URL, ptr %32, i32 0, i32 4
  store ptr %31, ptr %33, align 8
  br label %34

34:                                               ; preds = %26, %25
  %35 = load i32, ptr %7, align 4
  ret i32 %35
}