; Function Attrs: nounwind uwtable
define dso_local range(i32 0, 32) i32 @Curl_url_set_authority(ptr noundef captures(none) %0, ptr noundef %1, i32 noundef %2) local_unnamed_addr #0 {
  %4 = alloca %struct.dynbuf, align 8
  call void @Curl_dyn_init(ptr noundef nonnull %4, i64 noundef 8000000) #10
  %5 = call i64 @strlen(ptr noundef nonnull dereferenceable(1) %1) #11
  %6 = load ptr, ptr %0, align 8
  %7 = icmp ne ptr %6, null
  %8 = call fastcc i32 @parse_authority(ptr noundef nonnull %0, ptr noundef nonnull %1, i64 noundef %5, i32 noundef %2, ptr noundef %4, i1 noundef zeroext %7)
  %.not = icmp eq i32 %8, 0
  br i1 %.not, label %10, label %9

9:                                                ; preds = %3
  call void @Curl_dyn_free(ptr noundef nonnull %4) #10
  br label %15

10:                                               ; preds = %3
  %11 = load ptr, ptr @Curl_cfree, align 8
  %12 = getelementptr inbounds nuw i8, ptr %0, i64 32
  %13 = load ptr, ptr %12, align 8
  call void %11(ptr noundef %13) #10
  %14 = call ptr @Curl_dyn_ptr(ptr noundef nonnull %4) #10
  store ptr %14, ptr %12, align 8
  br label %15

15:                                               ; preds = %10, %9
  ret i32 %8
}